target datalayout = "e-m:e-p270:32:32-p271:32:32-p272:64:64-i64:64-i128:128-f80:128-n8:16:32:64-S128"
target triple = "x86_64-pc-linux-gnu"

; Function Attrs: mustprogress nounwind uwtable
define hidden void @_ZN4cvc58internal19PolarityTermContext8getFlagsEjRbS2_(i32 noundef %0, ptr noundef nonnull align 1 dereferenceable(1) %1, ptr noundef nonnull align 1 dereferenceable(1) %2) #4 align 2 {
  %4 = alloca i32, align 4
  %5 = alloca ptr, align 8
  %6 = alloca ptr, align 8
  store i32 %0, ptr %4, align 4, !tbaa !10
  store ptr %1, ptr %5, align 8, !tbaa !25
  store ptr %2, ptr %6, align 8, !tbaa !25
  %7 = load i32, ptr %4, align 4, !tbaa !10
  %8 = icmp ne i32 %7, 0
  %9 = load ptr, ptr %5, align 8, !tbaa !25
  %10 = zext i1 %8 to i8
  store i8 %10, ptr %9, align 1, !tbaa !21
  %11 = load i32, ptr %4, align 4, !tbaa !10
  %12 = icmp eq i32 %11, 2
  %13 = load ptr, ptr %6, align 8, !tbaa !25
  %14 = zext i1 %12 to i8
  store i8 %14, ptr %13, align 1, !tbaa !21
  ret void
}